; Function Attrs: mustprogress nounwind uwtable
define dso_local { ptr, i64 } @_ZNK5vcpkg4Json5Value6stringENS_8LineInfoE(ptr nocapture noundef nonnull readonly align 8 dereferenceable(8) %0, i32 %1, ptr %2) local_unnamed_addr #1 align 2 personality ptr @__gxx_personality_v0 {
  %4 = alloca %"struct.vcpkg::LocalizedString", align 8
  %5 = alloca %"struct.vcpkg::StringView", align 8
  %6 = alloca %"struct.vcpkg::LineInfo", align 8
  store i32 %1, ptr %6, align 8
  %7 = getelementptr inbounds i8, ptr %6, i64 8
  store ptr %2, ptr %7, align 8
  %8 = load ptr, ptr %0, align 8
  %.not.i.i = icmp eq ptr %8, null
  br i1 %.not.i.i, label %_ZNK5vcpkg4Json5Value9is_stringEv.exit.thread, label %_ZNK5vcpkg4Json5Value9is_stringEv.exit

_ZNK5vcpkg4Json5Value9is_stringEv.exit.thread:    ; preds = %3
  %.sroa.0.0.copyload2 = load i64, ptr @_ZN5vcpkg21msgJsonValueNotStringE, align 8
  call void @llvm.lifetime.start.p0(i64 32, ptr nonnull %4)
  br label %11

_ZNK5vcpkg4Json5Value9is_stringEv.exit:           ; preds = %3
  %9 = load i32, ptr %8, align 8
  %10 = icmp eq i32 %9, 4
  %.sroa.0.0.copyload = load i64, ptr @_ZN5vcpkg21msgJsonValueNotStringE, align 8
  call void @llvm.lifetime.start.p0(i64 32, ptr nonnull %4)
  br i1 %10, label %15, label %11

11:                                               ; preds = %_ZNK5vcpkg4Json5Value9is_stringEv.exit.thread, %_ZNK5vcpkg4Json5Value9is_stringEv.exit
  %.sroa.0.0.copyload3 = phi i64 [ %.sroa.0.0.copyload2, %_ZNK5vcpkg4Json5Value9is_stringEv.exit.thread ], [ %.sroa.0.0.copyload, %_ZNK5vcpkg4Json5Value9is_stringEv.exit ]
  invoke void @_ZN5vcpkg3msg6formatIJEJEEENS_15LocalizedStringENS0_8MessageTIJDpT_EEEDpNS0_6TagArgINS_8identityIS4_E4typeET0_EE(ptr dead_on_unwind nonnull writable sret(%"struct.vcpkg::LocalizedString") align 8 %4, i64 %.sroa.0.0.copyload3)
          to label %.noexc unwind label %17

.noexc:                                           ; preds = %11
  invoke void @_ZN5vcpkg6Checks21msg_exit_with_messageERKNS_8LineInfoERKNS_15LocalizedStringE(ptr noundef nonnull align 8 dereferenceable(16) %6, ptr noundef nonnull align 8 dereferenceable(32) %4) #27
          to label %12 unwind label %13

12:                                               ; preds = %.noexc
  unreachable

13:                                               ; preds = %.noexc
  %14 = landingpad { ptr, i32 }
          catch ptr null
  call void @_ZNSt7__cxx1112basic_stringIcSt11char_traitsIcESaIcEED1Ev(ptr noundef nonnull align 8 dereferenceable(32) %4) #26
  br label %.body

15:                                               ; preds = %_ZNK5vcpkg4Json5Value9is_stringEv.exit
  call void @llvm.lifetime.end.p0(i64 32, ptr nonnull %4)
  %16 = getelementptr inbounds i8, ptr %8, i64 8
  call void @_ZN5vcpkg10StringViewC1ERKNSt7__cxx1112basic_stringIcSt11char_traitsIcESaIcEEE(ptr noundef nonnull align 8 dereferenceable(16) %5, ptr noundef nonnull align 8 dereferenceable(32) %16) #26
  %.fca.0.load = load ptr, ptr %5, align 8
  %.fca.0.insert = insertvalue { ptr, i64 } poison, ptr %.fca.0.load, 0
  %.fca.1.gep = getelementptr inbounds i8, ptr %5, i64 8
  %.fca.1.load = load i64, ptr %.fca.1.gep, align 8
  %.fca.1.insert = insertvalue { ptr, i64 } %.fca.0.insert, i64 %.fca.1.load, 1
  ret { ptr, i64 } %.fca.1.insert

17:                                               ; preds = %11
  %18 = landingpad { ptr, i32 }
          catch ptr null
  br label %.body

.body:                                            ; preds = %13, %17
  %eh.lpad-body = phi { ptr, i32 } [ %18, %17 ], [ %14, %13 ]
  %19 = extractvalue { ptr, i32 } %eh.lpad-body, 0
  call void @__clang_call_terminate(ptr %19) #25
  unreachable
}